; ModuleID = 'source-C-CXX/56/230.c'
source_filename = "source-C-CXX/56/230.c"
target datalayout = "e-m:e-p270:32:32-p271:32:32-p272:64:64-i64:64-f80:128-n8:16:32:64-S128"
target triple = "x86_64-pc-linux-gnu"

@.str = private unnamed_addr constant [3 x i8] c"%d\00", align 1
@.str.1 = private unnamed_addr constant [3 x i8] c"%s\00", align 1

; Function Attrs: nofree nounwind sspstrong uwtable
define dso_local i32 @main() local_unnamed_addr #0 {
  %1 = alloca i32, align 4
  %2 = alloca [50 x [15 x i8]], align 16
  %3 = alloca [50 x [15 x i8]], align 16
  %4 = bitcast i32* %1 to i8*
  call void @llvm.lifetime.start.p0i8(i64 4, i8* nonnull %4) #7
  %5 = getelementptr inbounds [50 x [15 x i8]], [50 x [15 x i8]]* %2, i64 0, i64 0, i64 0
  call void @llvm.lifetime.start.p0i8(i64 750, i8* nonnull %5) #7
  call void @llvm.memset.p0i8.i64(i8* noundef nonnull align 16 dereferenceable(750) %5, i8 0, i64 750, i1 false)
  %6 = getelementptr inbounds [50 x [15 x i8]], [50 x [15 x i8]]* %3, i64 0, i64 0, i64 0
  call void @llvm.lifetime.start.p0i8(i64 750, i8* nonnull %6) #7
  call void @llvm.memset.p0i8.i64(i8* noundef nonnull align 16 dereferenceable(750) %6, i8 0, i64 750, i1 false)
  %7 = call i32 (i8*, ...) @__isoc99_scanf(i8* getelementptr inbounds ([3 x i8], [3 x i8]* @.str, i64 0, i64 0), i32* nonnull %1)
  %8 = load i32, i32* %1, align 4, !tbaa !5
  %9 = icmp sgt i32 %8, 0
  br i1 %9, label %12, label %55

10:                                               ; preds = %12
  %11 = icmp sgt i32 %17, 0
  br i1 %11, label %20, label %55

12:                                               ; preds = %0, %12
  %13 = phi i64 [ %16, %12 ], [ 0, %0 ]
  %14 = getelementptr inbounds [50 x [15 x i8]], [50 x [15 x i8]]* %2, i64 0, i64 %13, i64 0
  %15 = call i32 (i8*, ...) @__isoc99_scanf(i8* getelementptr inbounds ([3 x i8], [3 x i8]* @.str.1, i64 0, i64 0), i8* nonnull %14)
  %16 = add nuw nsw i64 %13, 1
  %17 = load i32, i32* %1, align 4, !tbaa !5
  %18 = sext i32 %17 to i64
  %19 = icmp slt i64 %16, %18
  br i1 %19, label %12, label %10, !llvm.loop !9

20:                                               ; preds = %10, %49
  %21 = phi i64 [ %51, %49 ], [ 0, %10 ]
  %22 = getelementptr [50 x [15 x i8]], [50 x [15 x i8]]* %3, i64 0, i64 %21, i64 0
  %23 = getelementptr [50 x [15 x i8]], [50 x [15 x i8]]* %2, i64 0, i64 %21, i64 0
  %24 = call i64 @strlen(i8* noundef nonnull %23) #8
  %25 = trunc i64 %24 to i32
  %26 = add i32 %25, -3
  %27 = sext i32 %26 to i64
  %28 = getelementptr inbounds [50 x [15 x i8]], [50 x [15 x i8]]* %2, i64 0, i64 %21, i64 %27
  %29 = load i8, i8* %28, align 1, !tbaa !11
  %30 = icmp eq i8 %29, 105
  br i1 %30, label %31, label %42

31:                                               ; preds = %20
  %32 = shl i64 %24, 32
  %33 = add i64 %32, -8589934592
  %34 = ashr exact i64 %33, 32
  %35 = getelementptr inbounds [50 x [15 x i8]], [50 x [15 x i8]]* %2, i64 0, i64 %21, i64 %34
  %36 = load i8, i8* %35, align 1, !tbaa !11
  %37 = icmp eq i8 %36, 110
  br i1 %37, label %38, label %42

38:                                               ; preds = %31
  %39 = icmp sgt i32 %25, 3
  br i1 %39, label %40, label %49

40:                                               ; preds = %38
  %41 = zext i32 %26 to i64
  br label %47

42:                                               ; preds = %31, %20
  %43 = icmp sgt i32 %25, 2
  br i1 %43, label %44, label %49

44:                                               ; preds = %42
  %45 = add i64 %24, 4294967294
  %46 = and i64 %45, 4294967295
  br label %47

47:                                               ; preds = %40, %44
  %48 = phi i64 [ %46, %44 ], [ %41, %40 ]
  call void @llvm.memcpy.p0i8.p0i8.i64(i8* align 1 %22, i8* align 1 %23, i64 %48, i1 false)
  br label %49

49:                                               ; preds = %47, %42, %38
  %50 = call i32 @puts(i8* nonnull %22)
  %51 = add nuw nsw i64 %21, 1
  %52 = load i32, i32* %1, align 4, !tbaa !5
  %53 = sext i32 %52 to i64
  %54 = icmp slt i64 %51, %53
  br i1 %54, label %20, label %55, !llvm.loop !12

55:                                               ; preds = %49, %0, %10
  call void @llvm.lifetime.end.p0i8(i64 750, i8* nonnull %6) #7
  call void @llvm.lifetime.end.p0i8(i64 750, i8* nonnull %5) #7
  call void @llvm.lifetime.end.p0i8(i64 4, i8* nonnull %4) #7
  ret i32 0
}

; Function Attrs: argmemonly mustprogress nofree nosync nounwind willreturn
declare void @llvm.lifetime.start.p0i8(i64 immarg, i8* nocapture) #1

; Function Attrs: argmemonly mustprogress nofree nounwind willreturn writeonly
declare void @llvm.memset.p0i8.i64(i8* nocapture writeonly, i8, i64, i1 immarg) #2

; Function Attrs: nofree nounwind
declare noundef i32 @__isoc99_scanf(i8* nocapture noundef readonly, ...) local_unnamed_addr #3

; Function Attrs: argmemonly mustprogress nofree nounwind readonly willreturn
declare i64 @strlen(i8* nocapture) local_unnamed_addr #4

; Function Attrs: argmemonly mustprogress nofree nosync nounwind willreturn
declare void @llvm.lifetime.end.p0i8(i64 immarg, i8* nocapture) #1

; Function Attrs: nofree nounwind
declare noundef i32 @puts(i8* nocapture noundef readonly) local_unnamed_addr #5

; Function Attrs: argmemonly nofree nounwind willreturn
declare void @llvm.memcpy.p0i8.p0i8.i64(i8* noalias nocapture writeonly, i8* noalias nocapture readonly, i64, i1 immarg) #6


!llvm.module.flags = !{!0, !1, !2, !3}
!llvm.ident = !{!4}

!0 = !{i32 1, !"wchar_size", i32 4}
!1 = !{i32 7, !"PIC Level", i32 2}
!2 = !{i32 7, !"PIE Level", i32 2}
!3 = !{i32 7, !"uwtable", i32 1}
!4 = !{!"clang version 13.0.0"}
!5 = !{!6, !6, i64 0}
!6 = !{!"int", !7, i64 0}
!7 = !{!"omnipotent char", !8, i64 0}
!8 = !{!"Simple C/C++ TBAA"}
!9 = distinct !{!9, !10}
!10 = !{!"llvm.loop.mustprogress"}
!11 = !{!7, !7, i64 0}
!12 = distinct !{!12, !10}
